; Function Attrs: nounwind uwtable
define noalias nonnull ptr @l_Lean_Meta_Grind_Arith_CommRing_getRingId_x3f_go_x3f___lambda__2(ptr noundef %0, ptr noundef readnone captures(none) %1, ptr noundef readnone captures(none) %2, ptr noundef readnone captures(none) %3, ptr noundef readnone captures(none) %4, ptr noundef readnone captures(none) %5, ptr noundef readnone captures(none) %6, ptr noundef readnone captures(none) %7, ptr noundef readnone captures(none) %8, ptr noundef readnone captures(none) %9, ptr noundef %10) local_unnamed_addr #1 {
  tail call void @lean_inc_heartbeat() #4
  %12 = tail call noalias ptr @mi_malloc_small(i64 noundef 24) #4
  %13 = icmp eq ptr %12, null
  br i1 %13, label %14, label %lean_alloc_ctor.exit

14:                                               ; preds = %11
  tail call void @lean_internal_panic_out_of_memory() #5
  unreachable

lean_alloc_ctor.exit:                             ; preds = %11
  %15 = getelementptr inbounds nuw i8, ptr %12, i64 4
  store i32 1, ptr %12, align 4, !tbaa !4
  store i32 131096, ptr %15, align 4
  %16 = getelementptr inbounds nuw i8, ptr %12, i64 8
  store ptr %0, ptr %16, align 8, !tbaa !9
  %17 = getelementptr inbounds nuw i8, ptr %12, i64 16
  store ptr %10, ptr %17, align 8, !tbaa !9
  ret ptr %12
}